target datalayout = "e-m:e-p270:32:32-p271:32:32-p272:64:64-i64:64-i128:128-f80:128-n8:16:32:64-S128"
target triple = "x86_64-pc-linux-gnu"

%struct.H5VL_loc_params_t = type { i32, i32, %union.anon.4 }
%union.anon.4 = type { %struct.H5VL_loc_by_idx }
%struct.H5VL_loc_by_idx = type { ptr, i32, i32, i64, i64 }
%struct.H5O_token_t = type { [16 x i8] }
%struct.H5VL_loc_by_token = type { ptr }
%struct.H5VL_object_get_args_t = type { i32, %union.anon.13 }
%union.anon.13 = type { %struct.anon.15 }
%struct.anon.15 = type { i64, ptr, ptr }
%struct.anon.16 = type { ptr }

@H5_libinit_g = external global i8, align 1
@H5_libterm_g = external global i8, align 1
@.str = private unnamed_addr constant [97 x i8] c"generated/home/dtcxzyw/WorkSpace/Projects/compilers/llvm-opt-benchmark/bench/hdf5/hdf5/src/H5R.c\00", align 1
@H5E_FUNC_g = external global i64, align 8
@H5E_CANTINIT_g = external global i64, align 8
@.str.1 = private unnamed_addr constant [30 x i8] c"library initialization failed\00", align 1
@H5E_CANTSET_g = external global i64, align 8
@.str.2 = private unnamed_addr constant [22 x i8] c"can't set API context\00", align 1
@H5E_ARGS_g = external global i64, align 8
@H5E_BADVALUE_g = external global i64, align 8
@.str.3 = private unnamed_addr constant [26 x i8] c"invalid reference pointer\00", align 1
@H5E_BADTYPE_g = external global i64, align 8
@.str.5 = private unnamed_addr constant [20 x i8] c"not a property list\00", align 1
@.str.7 = private unnamed_addr constant [28 x i8] c"invalid location identifier\00", align 1
@H5P_LST_DATASET_XFER_ID_g = external global i64, align 8
@H5E_REFERENCE_g = external global i64, align 8
@H5E_CANTGET_g = external global i64, align 8
@.str.20 = private unnamed_addr constant [23 x i8] c"invalid reference type\00", align 1
@__func__.H5Rget_obj_type3 = private unnamed_addr constant [17 x i8] c"H5Rget_obj_type3\00", align 1
@H5E_CANTOPENFILE_g = external global i64, align 8
@.str.42 = private unnamed_addr constant [31 x i8] c"cannot re-open referenced file\00", align 1
@.str.43 = private unnamed_addr constant [27 x i8] c"unable to get object token\00", align 1
@.str.44 = private unnamed_addr constant [27 x i8] c"can't retrieve object type\00", align 1

; Function Attrs: nounwind uwtable
define i32 @H5Rget_obj_type3(ptr noundef %0, i64 noundef %1, ptr noundef %2) #0 {
  %4 = alloca ptr, align 8
  %5 = alloca i64, align 8
  %6 = alloca ptr, align 8
  %7 = alloca i64, align 8
  %8 = alloca ptr, align 8
  %9 = alloca %struct.H5VL_object_get_args_t, align 8
  %10 = alloca %struct.H5VL_loc_params_t, align 8
  %11 = alloca %struct.H5O_token_t, align 1
  %12 = alloca i32, align 4
  %13 = alloca i8, align 1
  %14 = alloca i8, align 1
  store ptr %0, ptr %4, align 8
  store i64 %1, ptr %5, align 8
  store ptr %2, ptr %6, align 8
  store ptr null, ptr %8, align 8
  call void @llvm.memset.p0.i64(ptr align 1 %11, i8 0, i64 16, i1 false)
  store i32 0, ptr %12, align 4
  store i8 0, ptr %13, align 1
  store i8 0, ptr %14, align 1
  %15 = load i8, ptr @H5_libinit_g, align 1
  %16 = trunc i8 %15 to i1
  br i1 %16, label %21, label %17

17:                                               ; preds = %3
  %18 = load i8, ptr @H5_libterm_g, align 1
  %19 = trunc i8 %18 to i1
  %20 = xor i1 %19, true
  br label %21

21:                                               ; preds = %17, %3
  %22 = phi i1 [ false, %3 ], [ %20, %17 ]
  %23 = xor i1 %22, true
  %24 = xor i1 %23, true
  %25 = zext i1 %24 to i32
  %26 = sext i32 %25 to i64
  %27 = icmp ne i64 %26, 0
  br i1 %27, label %28, label %52

28:                                               ; preds = %21
  %29 = call i32 @H5_init_library()
  %30 = icmp slt i32 %29, 0
  %31 = xor i1 %30, true
  %32 = xor i1 %31, true
  %33 = zext i1 %32 to i32
  %34 = sext i32 %33 to i64
  %35 = icmp ne i64 %34, 0
  br i1 %35, label %36, label %51

36:                                               ; preds = %28
  br label %37

37:                                               ; preds = %36
  br label %38

38:                                               ; preds = %37
  br label %39

39:                                               ; preds = %38
  %40 = load i64, ptr @H5E_FUNC_g, align 8
  %41 = load i64, ptr @H5E_CANTINIT_g, align 8
  %42 = call i32 (ptr, ptr, i32, i64, i64, ptr, ...) @H5E_printf_stack(ptr noundef @.str, ptr noundef @__func__.H5Rget_obj_type3, i32 noundef 968, i64 noundef %40, i64 noundef %41, ptr noundef @.str.1)
  br label %43

43:                                               ; preds = %39
  store i8 1, ptr %14, align 1
  %44 = load i8, ptr %14, align 1
  %45 = trunc i8 %44 to i1
  %46 = zext i1 %45 to i8
  store i8 %46, ptr %14, align 1
  br label %47

47:                                               ; preds = %43
  br label %48

48:                                               ; preds = %47
  store i32 -1, ptr %12, align 4
  br label %230

49:                                               ; No predecessors!
  br label %50

50:                                               ; preds = %49
  br label %51

51:                                               ; preds = %50, %28
  br label %52

52:                                               ; preds = %51, %21
  %53 = call i32 @H5CX_push()
  %54 = icmp slt i32 %53, 0
  %55 = xor i1 %54, true
  %56 = xor i1 %55, true
  %57 = zext i1 %56 to i32
  %58 = sext i32 %57 to i64
  %59 = icmp ne i64 %58, 0
  br i1 %59, label %60, label %75

60:                                               ; preds = %52
  br label %61

61:                                               ; preds = %60
  br label %62

62:                                               ; preds = %61
  br label %63

63:                                               ; preds = %62
  %64 = load i64, ptr @H5E_FUNC_g, align 8
  %65 = load i64, ptr @H5E_CANTSET_g, align 8
  %66 = call i32 (ptr, ptr, i32, i64, i64, ptr, ...) @H5E_printf_stack(ptr noundef @.str, ptr noundef @__func__.H5Rget_obj_type3, i32 noundef 968, i64 noundef %64, i64 noundef %65, ptr noundef @.str.2)
  br label %67

67:                                               ; preds = %63
  store i8 1, ptr %14, align 1
  %68 = load i8, ptr %14, align 1
  %69 = trunc i8 %68 to i1
  %70 = zext i1 %69 to i8
  store i8 %70, ptr %14, align 1
  br label %71

71:                                               ; preds = %67
  br label %72

72:                                               ; preds = %71
  store i32 -1, ptr %12, align 4
  br label %230

73:                                               ; No predecessors!
  br label %74

74:                                               ; preds = %73
  br label %76

75:                                               ; preds = %52
  store i8 1, ptr %13, align 1
  br label %76

76:                                               ; preds = %75, %74
  %77 = call i32 @H5E_clear_stack()
  %78 = load ptr, ptr %4, align 8
  %79 = icmp eq ptr %78, null
  br i1 %79, label %80, label %95

80:                                               ; preds = %76
  br label %81

81:                                               ; preds = %80
  br label %82

82:                                               ; preds = %81
  br label %83

83:                                               ; preds = %82
  %84 = load i64, ptr @H5E_ARGS_g, align 8
  %85 = load i64, ptr @H5E_BADVALUE_g, align 8
  %86 = call i32 (ptr, ptr, i32, i64, i64, ptr, ...) @H5E_printf_stack(ptr noundef @.str, ptr noundef @__func__.H5Rget_obj_type3, i32 noundef 972, i64 noundef %84, i64 noundef %85, ptr noundef @.str.3)
  br label %87

87:                                               ; preds = %83
  store i8 1, ptr %14, align 1
  %88 = load i8, ptr %14, align 1
  %89 = trunc i8 %88 to i1
  %90 = zext i1 %89 to i8
  store i8 %90, ptr %14, align 1
  br label %91

91:                                               ; preds = %87
  br label %92

92:                                               ; preds = %91
  store i32 -1, ptr %12, align 4
  br label %230

93:                                               ; No predecessors!
  br label %94

94:                                               ; preds = %93
  br label %95

95:                                               ; preds = %94, %76
  %96 = load ptr, ptr %4, align 8
  %97 = call i32 @H5R__get_type(ptr noundef %96)
  %98 = icmp sle i32 %97, -1
  br i1 %98, label %103, label %99

99:                                               ; preds = %95
  %100 = load ptr, ptr %4, align 8
  %101 = call i32 @H5R__get_type(ptr noundef %100)
  %102 = icmp sge i32 %101, 5
  br i1 %102, label %103, label %118

103:                                              ; preds = %99, %95
  br label %104

104:                                              ; preds = %103
  br label %105

105:                                              ; preds = %104
  br label %106

106:                                              ; preds = %105
  %107 = load i64, ptr @H5E_ARGS_g, align 8
  %108 = load i64, ptr @H5E_BADVALUE_g, align 8
  %109 = call i32 (ptr, ptr, i32, i64, i64, ptr, ...) @H5E_printf_stack(ptr noundef @.str, ptr noundef @__func__.H5Rget_obj_type3, i32 noundef 975, i64 noundef %107, i64 noundef %108, ptr noundef @.str.20)
  br label %110

110:                                              ; preds = %106
  store i8 1, ptr %14, align 1
  %111 = load i8, ptr %14, align 1
  %112 = trunc i8 %111 to i1
  %113 = zext i1 %112 to i8
  store i8 %113, ptr %14, align 1
  br label %114

114:                                              ; preds = %110
  br label %115

115:                                              ; preds = %114
  store i32 -1, ptr %12, align 4
  br label %230

116:                                              ; No predecessors!
  br label %117

117:                                              ; preds = %116
  br label %118

118:                                              ; preds = %117, %99
  %119 = load i64, ptr %5, align 8
  %120 = icmp slt i64 %119, 0
  br i1 %120, label %121, label %136

121:                                              ; preds = %118
  br label %122

122:                                              ; preds = %121
  br label %123

123:                                              ; preds = %122
  br label %124

124:                                              ; preds = %123
  %125 = load i64, ptr @H5E_ARGS_g, align 8
  %126 = load i64, ptr @H5E_BADTYPE_g, align 8
  %127 = call i32 (ptr, ptr, i32, i64, i64, ptr, ...) @H5E_printf_stack(ptr noundef @.str, ptr noundef @__func__.H5Rget_obj_type3, i32 noundef 977, i64 noundef %125, i64 noundef %126, ptr noundef @.str.5)
  br label %128

128:                                              ; preds = %124
  store i8 1, ptr %14, align 1
  %129 = load i8, ptr %14, align 1
  %130 = trunc i8 %129 to i1
  %131 = zext i1 %130 to i8
  store i8 %131, ptr %14, align 1
  br label %132

132:                                              ; preds = %128
  br label %133

133:                                              ; preds = %132
  store i32 -1, ptr %12, align 4
  br label %230

134:                                              ; No predecessors!
  br label %135

135:                                              ; preds = %134
  br label %136

136:                                              ; preds = %135, %118
  %137 = load ptr, ptr %4, align 8
  %138 = call i64 @H5R__get_loc_id(ptr noundef %137)
  store i64 %138, ptr %7, align 8
  %139 = icmp eq i64 -1, %138
  br i1 %139, label %140, label %161

140:                                              ; preds = %136
  %141 = load ptr, ptr %4, align 8
  %142 = load i64, ptr %5, align 8
  %143 = call i64 @H5R__reopen_file(ptr noundef %141, i64 noundef %142)
  store i64 %143, ptr %7, align 8
  %144 = icmp slt i64 %143, 0
  br i1 %144, label %145, label %160

145:                                              ; preds = %140
  br label %146

146:                                              ; preds = %145
  br label %147

147:                                              ; preds = %146
  br label %148

148:                                              ; preds = %147
  %149 = load i64, ptr @H5E_REFERENCE_g, align 8
  %150 = load i64, ptr @H5E_CANTOPENFILE_g, align 8
  %151 = call i32 (ptr, ptr, i32, i64, i64, ptr, ...) @H5E_printf_stack(ptr noundef @.str, ptr noundef @__func__.H5Rget_obj_type3, i32 noundef 983, i64 noundef %149, i64 noundef %150, ptr noundef @.str.42)
  br label %152

152:                                              ; preds = %148
  store i8 1, ptr %14, align 1
  %153 = load i8, ptr %14, align 1
  %154 = trunc i8 %153 to i1
  %155 = zext i1 %154 to i8
  store i8 %155, ptr %14, align 1
  br label %156

156:                                              ; preds = %152
  br label %157

157:                                              ; preds = %156
  store i32 -1, ptr %12, align 4
  br label %230

158:                                              ; No predecessors!
  br label %159

159:                                              ; preds = %158
  br label %160

160:                                              ; preds = %159, %140
  br label %161

161:                                              ; preds = %160, %136
  %162 = load ptr, ptr %4, align 8
  %163 = call i32 @H5R__get_obj_token(ptr noundef %162, ptr noundef %11, ptr noundef null)
  %164 = icmp slt i32 %163, 0
  br i1 %164, label %165, label %180

165:                                              ; preds = %161
  br label %166

166:                                              ; preds = %165
  br label %167

167:                                              ; preds = %166
  br label %168

168:                                              ; preds = %167
  %169 = load i64, ptr @H5E_REFERENCE_g, align 8
  %170 = load i64, ptr @H5E_CANTGET_g, align 8
  %171 = call i32 (ptr, ptr, i32, i64, i64, ptr, ...) @H5E_printf_stack(ptr noundef @.str, ptr noundef @__func__.H5Rget_obj_type3, i32 noundef 987, i64 noundef %169, i64 noundef %170, ptr noundef @.str.43)
  br label %172

172:                                              ; preds = %168
  store i8 1, ptr %14, align 1
  %173 = load i8, ptr %14, align 1
  %174 = trunc i8 %173 to i1
  %175 = zext i1 %174 to i8
  store i8 %175, ptr %14, align 1
  br label %176

176:                                              ; preds = %172
  br label %177

177:                                              ; preds = %176
  store i32 -1, ptr %12, align 4
  br label %230

178:                                              ; No predecessors!
  br label %179

179:                                              ; preds = %178
  br label %180

180:                                              ; preds = %179, %161
  %181 = load i64, ptr %7, align 8
  %182 = call ptr @H5VL_vol_object(i64 noundef %181)
  store ptr %182, ptr %8, align 8
  %183 = icmp eq ptr null, %182
  br i1 %183, label %184, label %199

184:                                              ; preds = %180
  br label %185

185:                                              ; preds = %184
  br label %186

186:                                              ; preds = %185
  br label %187

187:                                              ; preds = %186
  %188 = load i64, ptr @H5E_ARGS_g, align 8
  %189 = load i64, ptr @H5E_BADTYPE_g, align 8
  %190 = call i32 (ptr, ptr, i32, i64, i64, ptr, ...) @H5E_printf_stack(ptr noundef @.str, ptr noundef @__func__.H5Rget_obj_type3, i32 noundef 991, i64 noundef %188, i64 noundef %189, ptr noundef @.str.7)
  br label %191

191:                                              ; preds = %187
  store i8 1, ptr %14, align 1
  %192 = load i8, ptr %14, align 1
  %193 = trunc i8 %192 to i1
  %194 = zext i1 %193 to i8
  store i8 %194, ptr %14, align 1
  br label %195

195:                                              ; preds = %191
  br label %196

196:                                              ; preds = %195
  store i32 -1, ptr %12, align 4
  br label %230

197:                                              ; No predecessors!
  br label %198

198:                                              ; preds = %197
  br label %199

199:                                              ; preds = %198, %180
  %200 = getelementptr inbounds %struct.H5VL_loc_params_t, ptr %10, i32 0, i32 1
  store i32 3, ptr %200, align 4
  %201 = getelementptr inbounds %struct.H5VL_loc_params_t, ptr %10, i32 0, i32 2
  %202 = getelementptr inbounds %struct.H5VL_loc_by_token, ptr %201, i32 0, i32 0
  store ptr %11, ptr %202, align 8
  %203 = load i64, ptr %7, align 8
  %204 = call i32 @H5I_get_type(i64 noundef %203)
  %205 = getelementptr inbounds %struct.H5VL_loc_params_t, ptr %10, i32 0, i32 0
  store i32 %204, ptr %205, align 8
  %206 = getelementptr inbounds %struct.H5VL_object_get_args_t, ptr %9, i32 0, i32 0
  store i32 2, ptr %206, align 8
  %207 = load ptr, ptr %6, align 8
  %208 = getelementptr inbounds %struct.H5VL_object_get_args_t, ptr %9, i32 0, i32 1
  %209 = getelementptr inbounds %struct.anon.16, ptr %208, i32 0, i32 0
  store ptr %207, ptr %209, align 8
  %210 = load ptr, ptr %8, align 8
  %211 = load i64, ptr @H5P_LST_DATASET_XFER_ID_g, align 8
  %212 = call i32 @H5VL_object_get(ptr noundef %210, ptr noundef %10, ptr noundef %9, i64 noundef %211, ptr noundef null)
  %213 = icmp slt i32 %212, 0
  br i1 %213, label %214, label %229

214:                                              ; preds = %199
  br label %215

215:                                              ; preds = %214
  br label %216

216:                                              ; preds = %215
  br label %217

217:                                              ; preds = %216
  %218 = load i64, ptr @H5E_REFERENCE_g, align 8
  %219 = load i64, ptr @H5E_CANTGET_g, align 8
  %220 = call i32 (ptr, ptr, i32, i64, i64, ptr, ...) @H5E_printf_stack(ptr noundef @.str, ptr noundef @__func__.H5Rget_obj_type3, i32 noundef 1004, i64 noundef %218, i64 noundef %219, ptr noundef @.str.44)
  br label %221

221:                                              ; preds = %217
  store i8 1, ptr %14, align 1
  %222 = load i8, ptr %14, align 1
  %223 = trunc i8 %222 to i1
  %224 = zext i1 %223 to i8
  store i8 %224, ptr %14, align 1
  br label %225

225:                                              ; preds = %221
  br label %226

226:                                              ; preds = %225
  store i32 -1, ptr %12, align 4
  br label %230

227:                                              ; No predecessors!
  br label %228

228:                                              ; preds = %227
  br label %229

229:                                              ; preds = %228, %199
  br label %230

230:                                              ; preds = %229, %226, %196, %177, %157, %133, %115, %92, %72, %48
  %231 = load i8, ptr %13, align 1
  %232 = trunc i8 %231 to i1
  %233 = xor i1 %232, true
  %234 = xor i1 %233, true
  %235 = zext i1 %234 to i32
  %236 = sext i32 %235 to i64
  %237 = icmp ne i64 %236, 0
  br i1 %237, label %238, label %240

238:                                              ; preds = %230
  %239 = call i32 @H5CX_pop(i1 noundef zeroext true)
  store i8 0, ptr %13, align 1
  br label %240

240:                                              ; preds = %238, %230
  %241 = load i8, ptr %14, align 1
  %242 = trunc i8 %241 to i1
  %243 = xor i1 %242, true
  %244 = xor i1 %243, true
  %245 = zext i1 %244 to i32
  %246 = sext i32 %245 to i64
  %247 = icmp ne i64 %246, 0
  br i1 %247, label %248, label %250

248:                                              ; preds = %240
  %249 = call i32 @H5E_dump_api_stack()
  br label %250

250:                                              ; preds = %248, %240
  %251 = load i32, ptr %12, align 4
  ret i32 %251
}