; Function Attrs: nounwind uwtable
define range(i32 -1, 1) i32 @H5Rget_obj_type3(ptr noundef %0, i64 noundef %1, ptr noundef %2) local_unnamed_addr #0 {
  %4 = alloca %struct.H5VL_object_get_args_t, align 8
  %5 = alloca %struct.H5VL_loc_params_t, align 8
  %6 = alloca %struct.H5O_token_t, align 1
  call void @llvm.memset.p0.i64(ptr noundef nonnull align 1 dereferenceable(16) %6, i8 0, i64 16, i1 false)
  %7 = load i8, ptr @H5_libinit_g, align 1
  %8 = trunc i8 %7 to i1
  %9 = load i8, ptr @H5_libterm_g, align 1
  %10 = trunc i8 %9 to i1
  %11 = select i1 %8, i1 true, i1 %10
  br i1 %11, label %19, label %12

12:                                               ; preds = %3
  %13 = tail call i32 @H5_init_library() #4
  %14 = icmp slt i32 %13, 0
  br i1 %14, label %15, label %19

15:                                               ; preds = %12
  %16 = load i64, ptr @H5E_FUNC_g, align 8
  %17 = load i64, ptr @H5E_CANTINIT_g, align 8
  %18 = tail call i32 (ptr, ptr, i32, i64, i64, ptr, ...) @H5E_printf_stack(ptr noundef nonnull @.str, ptr noundef nonnull @__func__.H5Rget_obj_type3, i32 noundef 968, i64 noundef %16, i64 noundef %17, ptr noundef nonnull @.str.1) #4
  br label %.thread39

19:                                               ; preds = %12, %3
  %20 = tail call i32 @H5CX_push() #4
  %21 = icmp slt i32 %20, 0
  br i1 %21, label %22, label %26

22:                                               ; preds = %19
  %23 = load i64, ptr @H5E_FUNC_g, align 8
  %24 = load i64, ptr @H5E_CANTSET_g, align 8
  %25 = tail call i32 (ptr, ptr, i32, i64, i64, ptr, ...) @H5E_printf_stack(ptr noundef nonnull @.str, ptr noundef nonnull @__func__.H5Rget_obj_type3, i32 noundef 968, i64 noundef %23, i64 noundef %24, ptr noundef nonnull @.str.2) #4
  br label %.thread39

26:                                               ; preds = %19
  %27 = tail call i32 @H5E_clear_stack() #4
  %28 = icmp eq ptr %0, null
  br i1 %28, label %29, label %33

29:                                               ; preds = %26
  %30 = load i64, ptr @H5E_ARGS_g, align 8
  %31 = load i64, ptr @H5E_BADVALUE_g, align 8
  %32 = tail call i32 (ptr, ptr, i32, i64, i64, ptr, ...) @H5E_printf_stack(ptr noundef nonnull @.str, ptr noundef nonnull @__func__.H5Rget_obj_type3, i32 noundef 972, i64 noundef %30, i64 noundef %31, ptr noundef nonnull @.str.3) #4
  br label %.thread45

33:                                               ; preds = %26
  %34 = tail call i32 @H5R__get_type(ptr noundef nonnull %0) #4
  %35 = icmp slt i32 %34, 0
  br i1 %35, label %39, label %36

36:                                               ; preds = %33
  %37 = tail call i32 @H5R__get_type(ptr noundef nonnull %0) #4
  %38 = icmp sgt i32 %37, 4
  br i1 %38, label %39, label %43

39:                                               ; preds = %33, %36
  %40 = load i64, ptr @H5E_ARGS_g, align 8
  %41 = load i64, ptr @H5E_BADVALUE_g, align 8
  %42 = tail call i32 (ptr, ptr, i32, i64, i64, ptr, ...) @H5E_printf_stack(ptr noundef nonnull @.str, ptr noundef nonnull @__func__.H5Rget_obj_type3, i32 noundef 975, i64 noundef %40, i64 noundef %41, ptr noundef nonnull @.str.20) #4
  br label %.thread45

43:                                               ; preds = %36
  %44 = icmp slt i64 %1, 0
  br i1 %44, label %45, label %49

45:                                               ; preds = %43
  %46 = load i64, ptr @H5E_ARGS_g, align 8
  %47 = load i64, ptr @H5E_BADTYPE_g, align 8
  %48 = tail call i32 (ptr, ptr, i32, i64, i64, ptr, ...) @H5E_printf_stack(ptr noundef nonnull @.str, ptr noundef nonnull @__func__.H5Rget_obj_type3, i32 noundef 977, i64 noundef %46, i64 noundef %47, ptr noundef nonnull @.str.5) #4
  br label %.thread45

49:                                               ; preds = %43
  %50 = tail call i64 @H5R__get_loc_id(ptr noundef nonnull %0) #4
  %51 = icmp eq i64 %50, -1
  br i1 %51, label %52, label %59

52:                                               ; preds = %49
  %53 = tail call i64 @H5R__reopen_file(ptr noundef nonnull %0, i64 noundef %1) #4
  %54 = icmp slt i64 %53, 0
  br i1 %54, label %55, label %59

55:                                               ; preds = %52
  %56 = load i64, ptr @H5E_REFERENCE_g, align 8
  %57 = load i64, ptr @H5E_CANTOPENFILE_g, align 8
  %58 = tail call i32 (ptr, ptr, i32, i64, i64, ptr, ...) @H5E_printf_stack(ptr noundef nonnull @.str, ptr noundef nonnull @__func__.H5Rget_obj_type3, i32 noundef 983, i64 noundef %56, i64 noundef %57, ptr noundef nonnull @.str.42) #4
  br label %.thread45

59:                                               ; preds = %52, %49
  %.025 = phi i64 [ %53, %52 ], [ %50, %49 ]
  %60 = call i32 @H5R__get_obj_token(ptr noundef nonnull %0, ptr noundef nonnull %6, ptr noundef null) #4
  %61 = icmp slt i32 %60, 0
  br i1 %61, label %62, label %66

62:                                               ; preds = %59
  %63 = load i64, ptr @H5E_REFERENCE_g, align 8
  %64 = load i64, ptr @H5E_CANTGET_g, align 8
  %65 = call i32 (ptr, ptr, i32, i64, i64, ptr, ...) @H5E_printf_stack(ptr noundef nonnull @.str, ptr noundef nonnull @__func__.H5Rget_obj_type3, i32 noundef 987, i64 noundef %63, i64 noundef %64, ptr noundef nonnull @.str.43) #4
  br label %.thread45

66:                                               ; preds = %59
  %67 = call ptr @H5VL_vol_object(i64 noundef %.025) #4
  %68 = icmp eq ptr %67, null
  br i1 %68, label %69, label %73

69:                                               ; preds = %66
  %70 = load i64, ptr @H5E_ARGS_g, align 8
  %71 = load i64, ptr @H5E_BADTYPE_g, align 8
  %72 = call i32 (ptr, ptr, i32, i64, i64, ptr, ...) @H5E_printf_stack(ptr noundef nonnull @.str, ptr noundef nonnull @__func__.H5Rget_obj_type3, i32 noundef 991, i64 noundef %70, i64 noundef %71, ptr noundef nonnull @.str.7) #4
  br label %.thread45

73:                                               ; preds = %66
  %74 = getelementptr inbounds i8, ptr %5, i64 4
  store i32 3, ptr %74, align 4
  %75 = getelementptr inbounds i8, ptr %5, i64 8
  store ptr %6, ptr %75, align 8
  %76 = call i32 @H5I_get_type(i64 noundef %.025) #4
  store i32 %76, ptr %5, align 8
  store i32 2, ptr %4, align 8
  %77 = getelementptr inbounds i8, ptr %4, i64 8
  store ptr %2, ptr %77, align 8
  %78 = load i64, ptr @H5P_LST_DATASET_XFER_ID_g, align 8
  %79 = call i32 @H5VL_object_get(ptr noundef nonnull %67, ptr noundef nonnull %5, ptr noundef nonnull %4, i64 noundef %78, ptr noundef null) #4
  %80 = icmp slt i32 %79, 0
  br i1 %80, label %81, label %86

81:                                               ; preds = %73
  %82 = load i64, ptr @H5E_REFERENCE_g, align 8
  %83 = load i64, ptr @H5E_CANTGET_g, align 8
  %84 = call i32 (ptr, ptr, i32, i64, i64, ptr, ...) @H5E_printf_stack(ptr noundef nonnull @.str, ptr noundef nonnull @__func__.H5Rget_obj_type3, i32 noundef 1004, i64 noundef %82, i64 noundef %83, ptr noundef nonnull @.str.44) #4
  br label %.thread45

.thread45:                                        ; preds = %81, %69, %62, %55, %45, %39, %29
  %85 = call i32 @H5CX_pop(i1 noundef zeroext true) #4
  br label %.thread39

86:                                               ; preds = %73
  %87 = call i32 @H5CX_pop(i1 noundef zeroext true) #4
  br label %89

.thread39:                                        ; preds = %22, %15, %.thread45
  %88 = call i32 @H5E_dump_api_stack() #4
  br label %89

89:                                               ; preds = %86, %.thread39
  %.0243442 = phi i32 [ -1, %.thread39 ], [ 0, %86 ]
  ret i32 %.0243442
}